target datalayout = "e-m:e-p270:32:32-p271:32:32-p272:64:64-i64:64-i128:128-f80:128-n8:16:32:64-S128"
target triple = "x86_64-pc-linux-gnu"

%struct.tls_buffer_st = type { ptr, i64, i64, i64, i64, i32, i32 }
%struct.tls_rl_record_st = type { i32, i32, i64, i64, i64, ptr, ptr, ptr, i16, [8 x i8] }
%struct.ossl_record_layer_st = type { ptr, ptr, i32, i32, i32, i32, i32, ptr, i16, ptr, ptr, ptr, i64, i32, [33 x %struct.tls_buffer_st], i64, i64, %struct.tls_buffer_st, [32 x %struct.tls_rl_record_st], i64, i64, i64, i32, ptr, i64, [8 x i8], i32, i32, i64, i32, ptr, ptr, i64, ptr, ptr, i32, i32, i32, i64, i64, i64, [64 x i8], i32, i32, i32, ptr, ptr, i32, i32, i64, ptr, ptr, %struct.dtls_bitmap_st, %struct.dtls_bitmap_st, i32, ptr, ptr, ptr, ptr, ptr, i64, ptr }
%struct.dtls_bitmap_st = type { i64, [8 x i8] }

@.str = private unnamed_addr constant [43 x i8] c"../openssl/ssl/record/methods/tls_common.c\00", align 1
@.str.3 = private unnamed_addr constant [8 x i8] c"options\00", align 1
@__func__.tls_set_options = private unnamed_addr constant [16 x i8] c"tls_set_options\00", align 1
@.str.4 = private unnamed_addr constant [5 x i8] c"mode\00", align 1
@.str.5 = private unnamed_addr constant [16 x i8] c"read_buffer_len\00", align 1
@.str.6 = private unnamed_addr constant [14 x i8] c"block_padding\00", align 1
@.str.7 = private unnamed_addr constant [11 x i8] c"hs_padding\00", align 1
@.str.8 = private unnamed_addr constant [11 x i8] c"read_ahead\00", align 1

; Function Attrs: nounwind uwtable
define i32 @tls_set_options(ptr noundef %0, ptr noundef %1) #0 {
  %3 = alloca i32, align 4
  %4 = alloca ptr, align 8
  %5 = alloca ptr, align 8
  %6 = alloca ptr, align 8
  %7 = alloca i32, align 4
  store ptr %0, ptr %4, align 8, !tbaa !16
  store ptr %1, ptr %5, align 8, !tbaa !36
  call void @llvm.lifetime.start.p0(i64 8, ptr %6) #10
  %8 = load ptr, ptr %5, align 8, !tbaa !36
  %9 = call ptr @OSSL_PARAM_locate_const(ptr noundef %8, ptr noundef @.str.3)
  store ptr %9, ptr %6, align 8, !tbaa !36
  %10 = load ptr, ptr %6, align 8, !tbaa !36
  %11 = icmp ne ptr %10, null
  br i1 %11, label %12, label %19

12:                                               ; preds = %2
  %13 = load ptr, ptr %6, align 8, !tbaa !36
  %14 = load ptr, ptr %4, align 8, !tbaa !16
  %15 = getelementptr inbounds nuw %struct.ossl_record_layer_st, ptr %14, i32 0, i32 12
  %16 = call i32 @OSSL_PARAM_get_uint64(ptr noundef %13, ptr noundef %15)
  %17 = icmp ne i32 %16, 0
  br i1 %17, label %19, label %18

18:                                               ; preds = %12
  call void @ERR_new()
  call void @ERR_set_debug(ptr noundef @.str, i32 noundef 1200, ptr noundef @__func__.tls_set_options)
  call void (i32, i32, ptr, ...) @ERR_set_error(i32 noundef 20, i32 noundef 316, ptr noundef null)
  store i32 0, ptr %3, align 4
  store i32 1, ptr %7, align 4
  br label %94

19:                                               ; preds = %12, %2
  %20 = load ptr, ptr %5, align 8, !tbaa !36
  %21 = call ptr @OSSL_PARAM_locate_const(ptr noundef %20, ptr noundef @.str.4)
  store ptr %21, ptr %6, align 8, !tbaa !36
  %22 = load ptr, ptr %6, align 8, !tbaa !36
  %23 = icmp ne ptr %22, null
  br i1 %23, label %24, label %31

24:                                               ; preds = %19
  %25 = load ptr, ptr %6, align 8, !tbaa !36
  %26 = load ptr, ptr %4, align 8, !tbaa !16
  %27 = getelementptr inbounds nuw %struct.ossl_record_layer_st, ptr %26, i32 0, i32 13
  %28 = call i32 @OSSL_PARAM_get_uint32(ptr noundef %25, ptr noundef %27)
  %29 = icmp ne i32 %28, 0
  br i1 %29, label %31, label %30

30:                                               ; preds = %24
  call void @ERR_new()
  call void @ERR_set_debug(ptr noundef @.str, i32 noundef 1206, ptr noundef @__func__.tls_set_options)
  call void (i32, i32, ptr, ...) @ERR_set_error(i32 noundef 20, i32 noundef 316, ptr noundef null)
  store i32 0, ptr %3, align 4
  store i32 1, ptr %7, align 4
  br label %94

31:                                               ; preds = %24, %19
  %32 = load ptr, ptr %4, align 8, !tbaa !16
  %33 = getelementptr inbounds nuw %struct.ossl_record_layer_st, ptr %32, i32 0, i32 5
  %34 = load i32, ptr %33, align 4, !tbaa !128
  %35 = icmp eq i32 %34, 0
  br i1 %35, label %36, label %50

36:                                               ; preds = %31
  %37 = load ptr, ptr %5, align 8, !tbaa !36
  %38 = call ptr @OSSL_PARAM_locate_const(ptr noundef %37, ptr noundef @.str.5)
  store ptr %38, ptr %6, align 8, !tbaa !36
  %39 = load ptr, ptr %6, align 8, !tbaa !36
  %40 = icmp ne ptr %39, null
  br i1 %40, label %41, label %49

41:                                               ; preds = %36
  %42 = load ptr, ptr %6, align 8, !tbaa !36
  %43 = load ptr, ptr %4, align 8, !tbaa !16
  %44 = getelementptr inbounds nuw %struct.ossl_record_layer_st, ptr %43, i32 0, i32 17
  %45 = getelementptr inbounds nuw %struct.tls_buffer_st, ptr %44, i32 0, i32 1
  %46 = call i32 @OSSL_PARAM_get_size_t(ptr noundef %42, ptr noundef %45)
  %47 = icmp ne i32 %46, 0
  br i1 %47, label %49, label %48

48:                                               ; preds = %41
  call void @ERR_new()
  call void @ERR_set_debug(ptr noundef @.str, i32 noundef 1214, ptr noundef @__func__.tls_set_options)
  call void (i32, i32, ptr, ...) @ERR_set_error(i32 noundef 20, i32 noundef 316, ptr noundef null)
  store i32 0, ptr %3, align 4
  store i32 1, ptr %7, align 4
  br label %94

49:                                               ; preds = %41, %36
  br label %75

50:                                               ; preds = %31
  %51 = load ptr, ptr %5, align 8, !tbaa !36
  %52 = call ptr @OSSL_PARAM_locate_const(ptr noundef %51, ptr noundef @.str.6)
  store ptr %52, ptr %6, align 8, !tbaa !36
  %53 = load ptr, ptr %6, align 8, !tbaa !36
  %54 = icmp ne ptr %53, null
  br i1 %54, label %55, label %62

55:                                               ; preds = %50
  %56 = load ptr, ptr %6, align 8, !tbaa !36
  %57 = load ptr, ptr %4, align 8, !tbaa !16
  %58 = getelementptr inbounds nuw %struct.ossl_record_layer_st, ptr %57, i32 0, i32 39
  %59 = call i32 @OSSL_PARAM_get_size_t(ptr noundef %56, ptr noundef %58)
  %60 = icmp ne i32 %59, 0
  br i1 %60, label %62, label %61

61:                                               ; preds = %55
  call void @ERR_new()
  call void @ERR_set_debug(ptr noundef @.str, i32 noundef 1221, ptr noundef @__func__.tls_set_options)
  call void (i32, i32, ptr, ...) @ERR_set_error(i32 noundef 20, i32 noundef 316, ptr noundef null)
  store i32 0, ptr %3, align 4
  store i32 1, ptr %7, align 4
  br label %94

62:                                               ; preds = %55, %50
  %63 = load ptr, ptr %5, align 8, !tbaa !36
  %64 = call ptr @OSSL_PARAM_locate_const(ptr noundef %63, ptr noundef @.str.7)
  store ptr %64, ptr %6, align 8, !tbaa !36
  %65 = load ptr, ptr %6, align 8, !tbaa !36
  %66 = icmp ne ptr %65, null
  br i1 %66, label %67, label %74

67:                                               ; preds = %62
  %68 = load ptr, ptr %6, align 8, !tbaa !36
  %69 = load ptr, ptr %4, align 8, !tbaa !16
  %70 = getelementptr inbounds nuw %struct.ossl_record_layer_st, ptr %69, i32 0, i32 40
  %71 = call i32 @OSSL_PARAM_get_size_t(ptr noundef %68, ptr noundef %70)
  %72 = icmp ne i32 %71, 0
  br i1 %72, label %74, label %73

73:                                               ; preds = %67
  call void @ERR_new()
  call void @ERR_set_debug(ptr noundef @.str, i32 noundef 1227, ptr noundef @__func__.tls_set_options)
  call void (i32, i32, ptr, ...) @ERR_set_error(i32 noundef 20, i32 noundef 316, ptr noundef null)
  store i32 0, ptr %3, align 4
  store i32 1, ptr %7, align 4
  br label %94

74:                                               ; preds = %67, %62
  br label %75

75:                                               ; preds = %74, %49
  %76 = load ptr, ptr %4, align 8, !tbaa !16
  %77 = getelementptr inbounds nuw %struct.ossl_record_layer_st, ptr %76, i32 0, i32 6
  %78 = load i32, ptr %77, align 8, !tbaa !107
  %79 = icmp eq i32 %78, 3
  br i1 %79, label %80, label %93

80:                                               ; preds = %75
  %81 = load ptr, ptr %5, align 8, !tbaa !36
  %82 = call ptr @OSSL_PARAM_locate_const(ptr noundef %81, ptr noundef @.str.8)
  store ptr %82, ptr %6, align 8, !tbaa !36
  %83 = load ptr, ptr %6, align 8, !tbaa !36
  %84 = icmp ne ptr %83, null
  br i1 %84, label %85, label %92

85:                                               ; preds = %80
  %86 = load ptr, ptr %6, align 8, !tbaa !36
  %87 = load ptr, ptr %4, align 8, !tbaa !16
  %88 = getelementptr inbounds nuw %struct.ossl_record_layer_st, ptr %87, i32 0, i32 27
  %89 = call i32 @OSSL_PARAM_get_int(ptr noundef %86, ptr noundef %88)
  %90 = icmp ne i32 %89, 0
  br i1 %90, label %92, label %91

91:                                               ; preds = %85
  call void @ERR_new()
  call void @ERR_set_debug(ptr noundef @.str, i32 noundef 1242, ptr noundef @__func__.tls_set_options)
  call void (i32, i32, ptr, ...) @ERR_set_error(i32 noundef 20, i32 noundef 316, ptr noundef null)
  store i32 0, ptr %3, align 4
  store i32 1, ptr %7, align 4
  br label %94

92:                                               ; preds = %85, %80
  br label %93

93:                                               ; preds = %92, %75
  store i32 1, ptr %3, align 4
  store i32 1, ptr %7, align 4
  br label %94

94:                                               ; preds = %93, %91, %73, %61, %48, %30, %18
  call void @llvm.lifetime.end.p0(i64 8, ptr %6) #10
  %95 = load i32, ptr %3, align 4
  ret i32 %95
}