; Function Attrs: nounwind uwtable
define range(i32 0, 2) i32 @tls_set_options(ptr noundef %0, ptr noundef %1) #0 {
  %3 = tail call ptr @OSSL_PARAM_locate_const(ptr noundef %1, ptr noundef nonnull @.str.3) #13
  %.not = icmp eq ptr %3, null
  br i1 %.not, label %7, label %4

4:                                                ; preds = %2
  %5 = getelementptr inbounds nuw i8, ptr %0, i64 80
  %6 = tail call i32 @OSSL_PARAM_get_uint64(ptr noundef nonnull %3, ptr noundef nonnull %5) #13
  %.not32 = icmp eq i32 %6, 0
  br i1 %.not32, label %.sink.split, label %7

7:                                                ; preds = %4, %2
  %8 = tail call ptr @OSSL_PARAM_locate_const(ptr noundef %1, ptr noundef nonnull @.str.4) #13
  %.not33 = icmp eq ptr %8, null
  br i1 %.not33, label %12, label %9

9:                                                ; preds = %7
  %10 = getelementptr inbounds nuw i8, ptr %0, i64 88
  %11 = tail call i32 @OSSL_PARAM_get_uint32(ptr noundef nonnull %8, ptr noundef nonnull %10) #13
  %.not34 = icmp eq i32 %11, 0
  br i1 %.not34, label %.sink.split, label %12

12:                                               ; preds = %9, %7
  %13 = getelementptr inbounds nuw i8, ptr %0, i64 28
  %14 = load i32, ptr %13, align 4, !tbaa !103
  %15 = icmp eq i32 %14, 0
  br i1 %15, label %16, label %21

16:                                               ; preds = %12
  %17 = tail call ptr @OSSL_PARAM_locate_const(ptr noundef %1, ptr noundef nonnull @.str.5) #13
  %.not39 = icmp eq ptr %17, null
  br i1 %.not39, label %31, label %18

18:                                               ; preds = %16
  %19 = getelementptr inbounds nuw i8, ptr %0, i64 1704
  %20 = tail call i32 @OSSL_PARAM_get_size_t(ptr noundef nonnull %17, ptr noundef nonnull %19) #13
  %.not40 = icmp eq i32 %20, 0
  br i1 %.not40, label %.sink.split, label %31

21:                                               ; preds = %12
  %22 = tail call ptr @OSSL_PARAM_locate_const(ptr noundef %1, ptr noundef nonnull @.str.6) #13
  %.not35 = icmp eq ptr %22, null
  br i1 %.not35, label %26, label %23

23:                                               ; preds = %21
  %24 = getelementptr inbounds nuw i8, ptr %0, i64 4192
  %25 = tail call i32 @OSSL_PARAM_get_size_t(ptr noundef nonnull %22, ptr noundef nonnull %24) #13
  %.not36 = icmp eq i32 %25, 0
  br i1 %.not36, label %.sink.split, label %26

26:                                               ; preds = %23, %21
  %27 = tail call ptr @OSSL_PARAM_locate_const(ptr noundef %1, ptr noundef nonnull @.str.7) #13
  %.not37 = icmp eq ptr %27, null
  br i1 %.not37, label %31, label %28

28:                                               ; preds = %26
  %29 = getelementptr inbounds nuw i8, ptr %0, i64 4200
  %30 = tail call i32 @OSSL_PARAM_get_size_t(ptr noundef nonnull %27, ptr noundef nonnull %29) #13
  %.not38 = icmp eq i32 %30, 0
  br i1 %.not38, label %.sink.split, label %31

31:                                               ; preds = %26, %28, %16, %18
  %32 = getelementptr inbounds nuw i8, ptr %0, i64 32
  %33 = load i32, ptr %32, align 8, !tbaa !87
  %34 = icmp eq i32 %33, 3
  br i1 %34, label %35, label %40

35:                                               ; preds = %31
  %36 = tail call ptr @OSSL_PARAM_locate_const(ptr noundef %1, ptr noundef nonnull @.str.8) #13
  %.not41 = icmp eq ptr %36, null
  br i1 %.not41, label %40, label %37

37:                                               ; preds = %35
  %38 = getelementptr inbounds nuw i8, ptr %0, i64 4108
  %39 = tail call i32 @OSSL_PARAM_get_int(ptr noundef nonnull %36, ptr noundef nonnull %38) #13
  %.not42 = icmp eq i32 %39, 0
  br i1 %.not42, label %.sink.split, label %40

.sink.split:                                      ; preds = %37, %28, %23, %18, %9, %4
  %.sink = phi i32 [ 1200, %4 ], [ 1206, %9 ], [ 1214, %18 ], [ 1221, %23 ], [ 1227, %28 ], [ 1242, %37 ]
  tail call void @ERR_new() #13
  tail call void @ERR_set_debug(ptr noundef nonnull @.str, i32 noundef %.sink, ptr noundef nonnull @__func__.tls_set_options) #13
  tail call void (i32, i32, ptr, ...) @ERR_set_error(i32 noundef 20, i32 noundef 316, ptr noundef null) #13
  br label %40

40:                                               ; preds = %.sink.split, %31, %37, %35
  %.0 = phi i32 [ 1, %35 ], [ 1, %37 ], [ 1, %31 ], [ 0, %.sink.split ]
  ret i32 %.0
}